
/home/eyal/data/projects/apple-ii/ps2apple/build/output.elf:     file format elf32-avr

Sections:
Idx Name          Size      VMA       LMA       File off  Algn
  0 .text         0000055a  00000000  00000000  00000094  2**1
                  CONTENTS, ALLOC, LOAD, READONLY, CODE
  1 .data         000000e8  00800060  0000055a  000005ee  2**0
                  CONTENTS, ALLOC, LOAD, DATA
  2 .bss          0000002e  00800148  00800148  000006d6  2**0
                  ALLOC
  3 .comment      00000011  00000000  00000000  000006d6  2**0
                  CONTENTS, READONLY
  4 .note.gnu.avr.deviceinfo 0000003c  00000000  00000000  000006e8  2**2
                  CONTENTS, READONLY
  5 .debug_info   00000420  00000000  00000000  00000724  2**0
                  CONTENTS, READONLY, DEBUGGING
  6 .debug_abbrev 000003e8  00000000  00000000  00000b44  2**0
                  CONTENTS, READONLY, DEBUGGING
  7 .debug_line   0000001a  00000000  00000000  00000f2c  2**0
                  CONTENTS, READONLY, DEBUGGING
  8 .debug_str    00000173  00000000  00000000  00000f46  2**0
                  CONTENTS, READONLY, DEBUGGING

Disassembly of section .text:

00000000 <__vectors>:
   0:	10 c0       	rjmp	.+32     	; 0x22 <__ctors_end>
   2:	34 c0       	rjmp	.+104    	; 0x6c <__bad_interrupt>
   4:	33 c0       	rjmp	.+102    	; 0x6c <__bad_interrupt>
   6:	f0 c1       	rjmp	.+992    	; 0x3e8 <__vector_3>
   8:	31 c0       	rjmp	.+98     	; 0x6c <__bad_interrupt>
   a:	30 c0       	rjmp	.+96     	; 0x6c <__bad_interrupt>
   c:	2f c0       	rjmp	.+94     	; 0x6c <__bad_interrupt>
   e:	2e c0       	rjmp	.+92     	; 0x6c <__bad_interrupt>
  10:	2d c0       	rjmp	.+90     	; 0x6c <__bad_interrupt>
  12:	2c c0       	rjmp	.+88     	; 0x6c <__bad_interrupt>
  14:	2b c0       	rjmp	.+86     	; 0x6c <__bad_interrupt>
  16:	2a c0       	rjmp	.+84     	; 0x6c <__bad_interrupt>
  18:	29 c0       	rjmp	.+82     	; 0x6c <__bad_interrupt>
  1a:	28 c0       	rjmp	.+80     	; 0x6c <__bad_interrupt>
  1c:	27 c0       	rjmp	.+78     	; 0x6c <__bad_interrupt>
  1e:	26 c0       	rjmp	.+76     	; 0x6c <__bad_interrupt>
  20:	25 c0       	rjmp	.+74     	; 0x6c <__bad_interrupt>

00000022 <__ctors_end>:
  22:	11 24       	eor	r1, r1
  24:	1f be       	out	0x3f, r1	; 63
  26:	cf e5       	ldi	r28, 0x5F	; 95
  28:	d2 e0       	ldi	r29, 0x02	; 2
  2a:	de bf       	out	0x3e, r29	; 62
  2c:	cd bf       	out	0x3d, r28	; 61

0000002e <reset>:
  2e:	f8 94       	cli
  30:	14 be       	out	0x34, r1	; 52
  32:	0f b6       	in	r0, 0x3f	; 63
  34:	f8 94       	cli
  36:	a8 95       	wdr
  38:	81 b5       	in	r24, 0x21	; 33
  3a:	88 61       	ori	r24, 0x18	; 24
  3c:	81 bd       	out	0x21, r24	; 33
  3e:	11 bc       	out	0x21, r1	; 33
  40:	0f be       	out	0x3f, r0	; 63

00000042 <__do_copy_data>:
  42:	11 e0       	ldi	r17, 0x01	; 1
  44:	a0 e6       	ldi	r26, 0x60	; 96
  46:	b0 e0       	ldi	r27, 0x00	; 0
  48:	ea e5       	ldi	r30, 0x5A	; 90
  4a:	f5 e0       	ldi	r31, 0x05	; 5
  4c:	02 c0       	rjmp	.+4      	; 0x52 <__do_copy_data+0x10>
  4e:	05 90       	lpm	r0, Z+
  50:	0d 92       	st	X+, r0
  52:	a8 34       	cpi	r26, 0x48	; 72
  54:	b1 07       	cpc	r27, r17
  56:	d9 f7       	brne	.-10     	; 0x4e <__do_copy_data+0xc>

00000058 <__do_clear_bss>:
  58:	21 e0       	ldi	r18, 0x01	; 1
  5a:	a8 e4       	ldi	r26, 0x48	; 72
  5c:	b1 e0       	ldi	r27, 0x01	; 1
  5e:	01 c0       	rjmp	.+2      	; 0x62 <.do_clear_bss_start>

00000060 <.do_clear_bss_loop>:
  60:	1d 92       	st	X+, r1

00000062 <.do_clear_bss_start>:
  62:	a6 37       	cpi	r26, 0x76	; 118
  64:	b2 07       	cpc	r27, r18
  66:	e1 f7       	brne	.-8      	; 0x60 <.do_clear_bss_loop>
  68:	28 d1       	rcall	.+592    	; 0x2ba <main>
  6a:	75 c2       	rjmp	.+1258   	; 0x556 <_exit>

0000006c <__bad_interrupt>:
  6c:	c9 cf       	rjmp	.-110    	; 0x0 <__vectors>

0000006e <ioinit>:
  6e:	80 e8       	ldi	r24, 0x80	; 128
  70:	86 bd       	out	0x26, r24	; 38
  72:	16 bc       	out	0x26, r1	; 38
  74:	9f ef       	ldi	r25, 0xFF	; 255
  76:	97 bb       	out	0x17, r25	; 23
  78:	18 ba       	out	0x18, r1	; 24
  7a:	17 ba       	out	0x17, r1	; 23
  7c:	23 e0       	ldi	r18, 0x03	; 3
  7e:	28 bb       	out	0x18, r18	; 24
  80:	9a bb       	out	0x1a, r25	; 26
  82:	8b bb       	out	0x1b, r24	; 27
  84:	80 e2       	ldi	r24, 0x20	; 32
  86:	8b bf       	out	0x3b, r24	; 59
  88:	81 e0       	ldi	r24, 0x01	; 1
  8a:	80 bd       	out	0x20, r24	; 32
  8c:	08 95       	ret

0000008e <ps2_send>:
  8e:	f8 94       	cli
  90:	10 92 4f 01 	sts	0x014F, r1	; 0x80014f <ps2_rx_state>
  94:	10 92 4e 01 	sts	0x014E, r1	; 0x80014e <ps2_rx_data_byte>
  98:	10 92 4d 01 	sts	0x014D, r1	; 0x80014d <ps2_rx_bit_count+0x1>
  9c:	10 92 4c 01 	sts	0x014C, r1	; 0x80014c <ps2_rx_bit_count>
  a0:	10 92 4b 01 	sts	0x014B, r1	; 0x80014b <ps2_rx_parity+0x1>
  a4:	10 92 4a 01 	sts	0x014A, r1	; 0x80014a <ps2_rx_parity>
  a8:	b8 9a       	sbi	0x17, 0	; 23
  aa:	c0 98       	cbi	0x18, 0	; 24
  ac:	e7 ec       	ldi	r30, 0xC7	; 199
  ae:	f0 e0       	ldi	r31, 0x00	; 0
  b0:	31 97       	sbiw	r30, 0x01	; 1
  b2:	f1 f7       	brne	.-4      	; 0xb0 <ps2_send+0x22>
  b4:	00 c0       	rjmp	.+0      	; 0xb6 <ps2_send+0x28>
  b6:	00 00       	nop
  b8:	b9 9a       	sbi	0x17, 1	; 23
  ba:	c1 98       	cbi	0x18, 1	; 24
  bc:	b8 98       	cbi	0x17, 0	; 23
  be:	c0 9a       	sbi	0x18, 0	; 24
  c0:	20 e0       	ldi	r18, 0x00	; 0
  c2:	30 e0       	ldi	r19, 0x00	; 0
  c4:	41 e0       	ldi	r20, 0x01	; 1
  c6:	50 e0       	ldi	r21, 0x00	; 0
  c8:	28 30       	cpi	r18, 0x08	; 8
  ca:	31 05       	cpc	r19, r1
  cc:	2c f4       	brge	.+10     	; 0xd8 <ps2_send+0x4a>
  ce:	98 2f       	mov	r25, r24
  d0:	91 70       	andi	r25, 0x01	; 1
  d2:	49 0f       	add	r20, r25
  d4:	51 1d       	adc	r21, r1
  d6:	07 c0       	rjmp	.+14     	; 0xe6 <ps2_send+0x58>
  d8:	28 30       	cpi	r18, 0x08	; 8
  da:	31 05       	cpc	r19, r1
  dc:	19 f4       	brne	.+6      	; 0xe4 <ps2_send+0x56>
  de:	94 2f       	mov	r25, r20
  e0:	91 70       	andi	r25, 0x01	; 1
  e2:	01 c0       	rjmp	.+2      	; 0xe6 <ps2_send+0x58>
  e4:	91 e0       	ldi	r25, 0x01	; 1
  e6:	b0 99       	sbic	0x16, 0	; 22
  e8:	fe cf       	rjmp	.-4      	; 0xe6 <ps2_send+0x58>
  ea:	99 23       	and	r25, r25
  ec:	11 f0       	breq	.+4      	; 0xf2 <ps2_send+0x64>
  ee:	c1 9a       	sbi	0x18, 1	; 24
  f0:	01 c0       	rjmp	.+2      	; 0xf4 <ps2_send+0x66>
  f2:	c1 98       	cbi	0x18, 1	; 24
  f4:	b0 9b       	sbis	0x16, 0	; 22
  f6:	fe cf       	rjmp	.-4      	; 0xf4 <ps2_send+0x66>
  f8:	2f 5f       	subi	r18, 0xFF	; 255
  fa:	3f 4f       	sbci	r19, 0xFF	; 255
  fc:	86 95       	lsr	r24
  fe:	2a 30       	cpi	r18, 0x0A	; 10
 100:	31 05       	cpc	r19, r1
 102:	11 f7       	brne	.-60     	; 0xc8 <ps2_send+0x3a>
 104:	b9 98       	cbi	0x17, 1	; 23
 106:	c1 9a       	sbi	0x18, 1	; 24
 108:	b0 99       	sbic	0x16, 0	; 22
 10a:	fe cf       	rjmp	.-4      	; 0x108 <ps2_send+0x7a>
 10c:	86 b3       	in	r24, 0x16	; 22
 10e:	82 70       	andi	r24, 0x02	; 2
 110:	90 e0       	ldi	r25, 0x00	; 0
 112:	91 95       	neg	r25
 114:	81 95       	neg	r24
 116:	91 09       	sbc	r25, r1
 118:	b0 9b       	sbis	0x16, 0	; 22
 11a:	fe cf       	rjmp	.-4      	; 0x118 <ps2_send+0x8a>
 11c:	78 94       	sei
 11e:	ef e3       	ldi	r30, 0x3F	; 63
 120:	fc e9       	ldi	r31, 0x9C	; 156
 122:	31 97       	sbiw	r30, 0x01	; 1
 124:	f1 f7       	brne	.-4      	; 0x122 <ps2_send+0x94>
 126:	00 c0       	rjmp	.+0      	; 0x128 <ps2_send+0x9a>
 128:	00 00       	nop
 12a:	08 95       	ret

0000012c <ps2_recv>:
 12c:	80 91 50 01 	lds	r24, 0x0150	; 0x800150 <ps2_scan_code_count>
 130:	90 91 51 01 	lds	r25, 0x0151	; 0x800151 <ps2_scan_code_count+0x1>
 134:	18 16       	cp	r1, r24
 136:	19 06       	cpc	r1, r25
 138:	14 f5       	brge	.+68     	; 0x17e <ps2_recv+0x52>
 13a:	20 91 54 01 	lds	r18, 0x0154	; 0x800154 <ps2_buffer_out>
 13e:	30 91 55 01 	lds	r19, 0x0155	; 0x800155 <ps2_buffer_out+0x1>
 142:	f9 01       	movw	r30, r18
 144:	ea 5a       	subi	r30, 0xAA	; 170
 146:	fe 4f       	sbci	r31, 0xFE	; 254
 148:	80 81       	ld	r24, Z
 14a:	90 e0       	ldi	r25, 0x00	; 0
 14c:	40 91 50 01 	lds	r20, 0x0150	; 0x800150 <ps2_scan_code_count>
 150:	50 91 51 01 	lds	r21, 0x0151	; 0x800151 <ps2_scan_code_count+0x1>
 154:	41 50       	subi	r20, 0x01	; 1
 156:	51 09       	sbc	r21, r1
 158:	50 93 51 01 	sts	0x0151, r21	; 0x800151 <ps2_scan_code_count+0x1>
 15c:	40 93 50 01 	sts	0x0150, r20	; 0x800150 <ps2_scan_code_count>
 160:	2f 5f       	subi	r18, 0xFF	; 255
 162:	3f 4f       	sbci	r19, 0xFF	; 255
 164:	20 32       	cpi	r18, 0x20	; 32
 166:	31 05       	cpc	r19, r1
 168:	29 f0       	breq	.+10     	; 0x174 <ps2_recv+0x48>
 16a:	30 93 55 01 	sts	0x0155, r19	; 0x800155 <ps2_buffer_out+0x1>
 16e:	20 93 54 01 	sts	0x0154, r18	; 0x800154 <ps2_buffer_out>
 172:	08 95       	ret
 174:	10 92 55 01 	sts	0x0155, r1	; 0x800155 <ps2_buffer_out+0x1>
 178:	10 92 54 01 	sts	0x0154, r1	; 0x800154 <ps2_buffer_out>
 17c:	08 95       	ret
 17e:	8f ef       	ldi	r24, 0xFF	; 255
 180:	9f ef       	ldi	r25, 0xFF	; 255
 182:	08 95       	ret

00000184 <ps2_recv_x>:
 184:	d3 df       	rcall	.-90     	; 0x12c <ps2_recv>
 186:	8f 3f       	cpi	r24, 0xFF	; 255
 188:	2f ef       	ldi	r18, 0xFF	; 255
 18a:	92 07       	cpc	r25, r18
 18c:	d9 f3       	breq	.-10     	; 0x184 <ps2_recv_x>
 18e:	08 95       	ret

00000190 <kdb_led_ctrl>:
 190:	cf 93       	push	r28
 192:	c8 2f       	mov	r28, r24
 194:	8d ee       	ldi	r24, 0xED	; 237
 196:	7b df       	rcall	.-266    	; 0x8e <ps2_send>
 198:	f5 df       	rcall	.-22     	; 0x184 <ps2_recv_x>
 19a:	8a 3f       	cpi	r24, 0xFA	; 250
 19c:	91 05       	cpc	r25, r1
 19e:	29 f4       	brne	.+10     	; 0x1aa <kdb_led_ctrl+0x1a>
 1a0:	8c 2f       	mov	r24, r28
 1a2:	87 70       	andi	r24, 0x07	; 7
 1a4:	74 df       	rcall	.-280    	; 0x8e <ps2_send>
 1a6:	cf 91       	pop	r28
 1a8:	ed cf       	rjmp	.-38     	; 0x184 <ps2_recv_x>
 1aa:	cf 91       	pop	r28
 1ac:	08 95       	ret

000001ae <kbd_test_led>:
 1ae:	81 e0       	ldi	r24, 0x01	; 1
 1b0:	ef df       	rcall	.-34     	; 0x190 <kdb_led_ctrl>
 1b2:	2f ef       	ldi	r18, 0xFF	; 255
 1b4:	81 ee       	ldi	r24, 0xE1	; 225
 1b6:	94 e0       	ldi	r25, 0x04	; 4
 1b8:	21 50       	subi	r18, 0x01	; 1
 1ba:	80 40       	sbci	r24, 0x00	; 0
 1bc:	90 40       	sbci	r25, 0x00	; 0
 1be:	e1 f7       	brne	.-8      	; 0x1b8 <kbd_test_led+0xa>
 1c0:	00 c0       	rjmp	.+0      	; 0x1c2 <kbd_test_led+0x14>
 1c2:	00 00       	nop
 1c4:	80 e0       	ldi	r24, 0x00	; 0
 1c6:	e4 df       	rcall	.-56     	; 0x190 <kdb_led_ctrl>
 1c8:	84 e0       	ldi	r24, 0x04	; 4
 1ca:	e2 df       	rcall	.-60     	; 0x190 <kdb_led_ctrl>
 1cc:	2f ef       	ldi	r18, 0xFF	; 255
 1ce:	81 ee       	ldi	r24, 0xE1	; 225
 1d0:	94 e0       	ldi	r25, 0x04	; 4
 1d2:	21 50       	subi	r18, 0x01	; 1
 1d4:	80 40       	sbci	r24, 0x00	; 0
 1d6:	90 40       	sbci	r25, 0x00	; 0
 1d8:	e1 f7       	brne	.-8      	; 0x1d2 <kbd_test_led+0x24>
 1da:	00 c0       	rjmp	.+0      	; 0x1dc <kbd_test_led+0x2e>
 1dc:	00 00       	nop
 1de:	80 e0       	ldi	r24, 0x00	; 0
 1e0:	d7 df       	rcall	.-82     	; 0x190 <kdb_led_ctrl>
 1e2:	82 e0       	ldi	r24, 0x02	; 2
 1e4:	d5 df       	rcall	.-86     	; 0x190 <kdb_led_ctrl>
 1e6:	2f ef       	ldi	r18, 0xFF	; 255
 1e8:	81 ee       	ldi	r24, 0xE1	; 225
 1ea:	94 e0       	ldi	r25, 0x04	; 4
 1ec:	21 50       	subi	r18, 0x01	; 1
 1ee:	80 40       	sbci	r24, 0x00	; 0
 1f0:	90 40       	sbci	r25, 0x00	; 0
 1f2:	e1 f7       	brne	.-8      	; 0x1ec <kbd_test_led+0x3e>
 1f4:	00 c0       	rjmp	.+0      	; 0x1f6 <kbd_test_led+0x48>
 1f6:	00 00       	nop
 1f8:	80 e0       	ldi	r24, 0x00	; 0
 1fa:	ca df       	rcall	.-108    	; 0x190 <kdb_led_ctrl>
 1fc:	84 e0       	ldi	r24, 0x04	; 4
 1fe:	c8 df       	rcall	.-112    	; 0x190 <kdb_led_ctrl>
 200:	2f ef       	ldi	r18, 0xFF	; 255
 202:	81 ee       	ldi	r24, 0xE1	; 225
 204:	94 e0       	ldi	r25, 0x04	; 4
 206:	21 50       	subi	r18, 0x01	; 1
 208:	80 40       	sbci	r24, 0x00	; 0
 20a:	90 40       	sbci	r25, 0x00	; 0
 20c:	e1 f7       	brne	.-8      	; 0x206 <__DATA_REGION_LENGTH__+0x6>
 20e:	00 c0       	rjmp	.+0      	; 0x210 <__DATA_REGION_LENGTH__+0x10>
 210:	00 00       	nop
 212:	80 e0       	ldi	r24, 0x00	; 0
 214:	bd df       	rcall	.-134    	; 0x190 <kdb_led_ctrl>
 216:	81 e0       	ldi	r24, 0x01	; 1
 218:	bb df       	rcall	.-138    	; 0x190 <kdb_led_ctrl>
 21a:	2f ef       	ldi	r18, 0xFF	; 255
 21c:	81 ee       	ldi	r24, 0xE1	; 225
 21e:	94 e0       	ldi	r25, 0x04	; 4
 220:	21 50       	subi	r18, 0x01	; 1
 222:	80 40       	sbci	r24, 0x00	; 0
 224:	90 40       	sbci	r25, 0x00	; 0
 226:	e1 f7       	brne	.-8      	; 0x220 <__DATA_REGION_LENGTH__+0x20>
 228:	00 c0       	rjmp	.+0      	; 0x22a <__DATA_REGION_LENGTH__+0x2a>
 22a:	00 00       	nop
 22c:	80 e0       	ldi	r24, 0x00	; 0
 22e:	b0 cf       	rjmp	.-160    	; 0x190 <kdb_led_ctrl>

00000230 <kbd_code_set>:
 230:	cf 93       	push	r28
 232:	df 93       	push	r29
 234:	9c 01       	movw	r18, r24
 236:	21 50       	subi	r18, 0x01	; 1
 238:	31 09       	sbc	r19, r1
 23a:	23 30       	cpi	r18, 0x03	; 3
 23c:	31 05       	cpc	r19, r1
 23e:	60 f4       	brcc	.+24     	; 0x258 <kbd_code_set+0x28>
 240:	ec 01       	movw	r28, r24
 242:	80 ef       	ldi	r24, 0xF0	; 240
 244:	24 df       	rcall	.-440    	; 0x8e <ps2_send>
 246:	9e df       	rcall	.-196    	; 0x184 <ps2_recv_x>
 248:	8a 3f       	cpi	r24, 0xFA	; 250
 24a:	91 05       	cpc	r25, r1
 24c:	39 f4       	brne	.+14     	; 0x25c <kbd_code_set+0x2c>
 24e:	8c 2f       	mov	r24, r28
 250:	1e df       	rcall	.-452    	; 0x8e <ps2_send>
 252:	df 91       	pop	r29
 254:	cf 91       	pop	r28
 256:	96 cf       	rjmp	.-212    	; 0x184 <ps2_recv_x>
 258:	8e ef       	ldi	r24, 0xFE	; 254
 25a:	90 e0       	ldi	r25, 0x00	; 0
 25c:	df 91       	pop	r29
 25e:	cf 91       	pop	r28
 260:	08 95       	ret

00000262 <kbd_typematic_set>:
 262:	cf 93       	push	r28
 264:	c8 2f       	mov	r28, r24
 266:	83 ef       	ldi	r24, 0xF3	; 243
 268:	12 df       	rcall	.-476    	; 0x8e <ps2_send>
 26a:	8c df       	rcall	.-232    	; 0x184 <ps2_recv_x>
 26c:	8a 3f       	cpi	r24, 0xFA	; 250
 26e:	91 05       	cpc	r25, r1
 270:	29 f4       	brne	.+10     	; 0x27c <kbd_typematic_set+0x1a>
 272:	8c 2f       	mov	r24, r28
 274:	8f 77       	andi	r24, 0x7F	; 127
 276:	0b df       	rcall	.-490    	; 0x8e <ps2_send>
 278:	cf 91       	pop	r28
 27a:	84 cf       	rjmp	.-248    	; 0x184 <ps2_recv_x>
 27c:	cf 91       	pop	r28
 27e:	08 95       	ret

00000280 <apple_kbd_stb>:
 280:	df 98       	cbi	0x1b, 7	; 27
 282:	85 e0       	ldi	r24, 0x05	; 5
 284:	8a 95       	dec	r24
 286:	f1 f7       	brne	.-4      	; 0x284 <apple_kbd_stb+0x4>
 288:	00 00       	nop
 28a:	df 9a       	sbi	0x1b, 7	; 27
 28c:	08 95       	ret

0000028e <apple_kbd_write>:
 28e:	9c 01       	movw	r18, r24
 290:	86 2f       	mov	r24, r22
 292:	90 e0       	ldi	r25, 0x00	; 0
 294:	6a e3       	ldi	r22, 0x3A	; 58
 296:	70 e0       	ldi	r23, 0x00	; 0
 298:	4d d1       	rcall	.+666    	; 0x534 <__mulhi3>
 29a:	80 5a       	subi	r24, 0xA0	; 160
 29c:	9f 4f       	sbci	r25, 0xFF	; 255
 29e:	fc 01       	movw	r30, r24
 2a0:	e2 0f       	add	r30, r18
 2a2:	f3 1f       	adc	r31, r19
 2a4:	80 81       	ld	r24, Z
 2a6:	81 38       	cpi	r24, 0x81	; 129
 2a8:	08 f0       	brcs	.+2      	; 0x2ac <apple_kbd_write+0x1e>
 2aa:	8b bb       	out	0x1b, r24	; 27
 2ac:	8f e7       	ldi	r24, 0x7F	; 127
 2ae:	9e e3       	ldi	r25, 0x3E	; 62
 2b0:	01 97       	sbiw	r24, 0x01	; 1
 2b2:	f1 f7       	brne	.-4      	; 0x2b0 <apple_kbd_write+0x22>
 2b4:	00 c0       	rjmp	.+0      	; 0x2b6 <apple_kbd_write+0x28>
 2b6:	00 00       	nop
 2b8:	e3 cf       	rjmp	.-58     	; 0x280 <apple_kbd_stb>

000002ba <main>:
 2ba:	d9 de       	rcall	.-590    	; 0x6e <ioinit>
 2bc:	2f ef       	ldi	r18, 0xFF	; 255
 2be:	89 e6       	ldi	r24, 0x69	; 105
 2c0:	98 e1       	ldi	r25, 0x18	; 24
 2c2:	21 50       	subi	r18, 0x01	; 1
 2c4:	80 40       	sbci	r24, 0x00	; 0
 2c6:	90 40       	sbci	r25, 0x00	; 0
 2c8:	e1 f7       	brne	.-8      	; 0x2c2 <main+0x8>
 2ca:	00 c0       	rjmp	.+0      	; 0x2cc <main+0x12>
 2cc:	00 00       	nop
 2ce:	6f df       	rcall	.-290    	; 0x1ae <kbd_test_led>
 2d0:	8f e7       	ldi	r24, 0x7F	; 127
 2d2:	c7 df       	rcall	.-114    	; 0x262 <kbd_typematic_set>
 2d4:	81 e0       	ldi	r24, 0x01	; 1
 2d6:	90 e0       	ldi	r25, 0x00	; 0
 2d8:	ab df       	rcall	.-170    	; 0x230 <kbd_code_set>
 2da:	84 e0       	ldi	r24, 0x04	; 4
 2dc:	59 df       	rcall	.-334    	; 0x190 <kdb_led_ctrl>
 2de:	9d e0       	ldi	r25, 0x0D	; 13
 2e0:	88 e1       	ldi	r24, 0x18	; 24
 2e2:	0f b6       	in	r0, 0x3f	; 63
 2e4:	f8 94       	cli
 2e6:	a8 95       	wdr
 2e8:	81 bd       	out	0x21, r24	; 33
 2ea:	0f be       	out	0x3f, r0	; 63
 2ec:	91 bd       	out	0x21, r25	; 33
 2ee:	78 94       	sei
 2f0:	a8 95       	wdr
 2f2:	1c df       	rcall	.-456    	; 0x12c <ps2_recv>
 2f4:	8f 3f       	cpi	r24, 0xFF	; 255
 2f6:	2f ef       	ldi	r18, 0xFF	; 255
 2f8:	92 07       	cpc	r25, r18
 2fa:	d1 f3       	breq	.-12     	; 0x2f0 <main+0x36>
 2fc:	81 3e       	cpi	r24, 0xE1	; 225
 2fe:	91 05       	cpc	r25, r1
 300:	49 f4       	brne	.+18     	; 0x314 <main+0x5a>
 302:	40 df       	rcall	.-384    	; 0x184 <ps2_recv_x>
 304:	9c 01       	movw	r18, r24
 306:	2f 77       	andi	r18, 0x7F	; 127
 308:	2d 31       	cpi	r18, 0x1D	; 29
 30a:	31 05       	cpc	r19, r1
 30c:	09 f0       	breq	.+2      	; 0x310 <main+0x56>
 30e:	64 c0       	rjmp	.+200    	; 0x3d8 <main+0x11e>
 310:	39 df       	rcall	.-398    	; 0x184 <ps2_recv_x>
 312:	ee cf       	rjmp	.-36     	; 0x2f0 <main+0x36>
 314:	80 3e       	cpi	r24, 0xE0	; 224
 316:	91 05       	cpc	r25, r1
 318:	c9 f4       	brne	.+50     	; 0x34c <main+0x92>
 31a:	34 df       	rcall	.-408    	; 0x184 <ps2_recv_x>
 31c:	8d 31       	cpi	r24, 0x1D	; 29
 31e:	91 05       	cpc	r25, r1
 320:	21 f4       	brne	.+8      	; 0x32a <main+0x70>
 322:	80 91 48 01 	lds	r24, 0x0148	; 0x800148 <__data_end>
 326:	81 60       	ori	r24, 0x01	; 1
 328:	2a c0       	rjmp	.+84     	; 0x37e <main+0xc4>
 32a:	8d 39       	cpi	r24, 0x9D	; 157
 32c:	91 05       	cpc	r25, r1
 32e:	21 f4       	brne	.+8      	; 0x338 <main+0x7e>
 330:	80 91 48 01 	lds	r24, 0x0148	; 0x800148 <__data_end>
 334:	8e 7f       	andi	r24, 0xFE	; 254
 336:	23 c0       	rjmp	.+70     	; 0x37e <main+0xc4>
 338:	8b 34       	cpi	r24, 0x4B	; 75
 33a:	91 05       	cpc	r25, r1
 33c:	09 f4       	brne	.+2      	; 0x340 <main+0x86>
 33e:	51 c0       	rjmp	.+162    	; 0x3e2 <main+0x128>
 340:	8d 34       	cpi	r24, 0x4D	; 77
 342:	91 05       	cpc	r25, r1
 344:	a9 f6       	brne	.-86     	; 0x2f0 <main+0x36>
 346:	88 e3       	ldi	r24, 0x38	; 56
 348:	90 e0       	ldi	r25, 0x00	; 0
 34a:	42 c0       	rjmp	.+132    	; 0x3d0 <main+0x116>
 34c:	8d 31       	cpi	r24, 0x1D	; 29
 34e:	91 05       	cpc	r25, r1
 350:	41 f3       	breq	.-48     	; 0x322 <main+0x68>
 352:	8d 39       	cpi	r24, 0x9D	; 157
 354:	91 05       	cpc	r25, r1
 356:	61 f3       	breq	.-40     	; 0x330 <main+0x76>
 358:	8a 32       	cpi	r24, 0x2A	; 42
 35a:	91 05       	cpc	r25, r1
 35c:	19 f0       	breq	.+6      	; 0x364 <main+0xaa>
 35e:	86 33       	cpi	r24, 0x36	; 54
 360:	91 05       	cpc	r25, r1
 362:	21 f4       	brne	.+8      	; 0x36c <main+0xb2>
 364:	80 91 48 01 	lds	r24, 0x0148	; 0x800148 <__data_end>
 368:	82 60       	ori	r24, 0x02	; 2
 36a:	09 c0       	rjmp	.+18     	; 0x37e <main+0xc4>
 36c:	8a 3a       	cpi	r24, 0xAA	; 170
 36e:	91 05       	cpc	r25, r1
 370:	19 f0       	breq	.+6      	; 0x378 <main+0xbe>
 372:	86 3b       	cpi	r24, 0xB6	; 182
 374:	91 05       	cpc	r25, r1
 376:	31 f4       	brne	.+12     	; 0x384 <main+0xca>
 378:	80 91 48 01 	lds	r24, 0x0148	; 0x800148 <__data_end>
 37c:	8d 7f       	andi	r24, 0xFD	; 253
 37e:	80 93 48 01 	sts	0x0148, r24	; 0x800148 <__data_end>
 382:	b6 cf       	rjmp	.-148    	; 0x2f0 <main+0x36>
 384:	8a 32       	cpi	r24, 0x2A	; 42
 386:	91 05       	cpc	r25, r1
 388:	9c f4       	brge	.+38     	; 0x3b0 <main+0xf6>
 38a:	88 32       	cpi	r24, 0x28	; 40
 38c:	91 05       	cpc	r25, r1
 38e:	0c f0       	brlt	.+2      	; 0x392 <main+0xd8>
 390:	af cf       	rjmp	.-162    	; 0x2f0 <main+0x36>
 392:	8e 30       	cpi	r24, 0x0E	; 14
 394:	91 05       	cpc	r25, r1
 396:	c4 f0       	brlt	.+48     	; 0x3c8 <main+0x10e>
 398:	80 31       	cpi	r24, 0x10	; 16
 39a:	91 05       	cpc	r25, r1
 39c:	0c f4       	brge	.+2      	; 0x3a0 <main+0xe6>
 39e:	a8 cf       	rjmp	.-176    	; 0x2f0 <main+0x36>
 3a0:	9c 01       	movw	r18, r24
 3a2:	2a 51       	subi	r18, 0x1A	; 26
 3a4:	31 09       	sbc	r19, r1
 3a6:	22 30       	cpi	r18, 0x02	; 2
 3a8:	31 05       	cpc	r19, r1
 3aa:	08 f4       	brcc	.+2      	; 0x3ae <main+0xf4>
 3ac:	a1 cf       	rjmp	.-190    	; 0x2f0 <main+0x36>
 3ae:	0c c0       	rjmp	.+24     	; 0x3c8 <main+0x10e>
 3b0:	8b 32       	cpi	r24, 0x2B	; 43
 3b2:	91 05       	cpc	r25, r1
 3b4:	09 f4       	brne	.+2      	; 0x3b8 <main+0xfe>
 3b6:	9c cf       	rjmp	.-200    	; 0x2f0 <main+0x36>
 3b8:	3c f0       	brlt	.+14     	; 0x3c8 <main+0x10e>
 3ba:	9c 01       	movw	r18, r24
 3bc:	2a 53       	subi	r18, 0x3A	; 58
 3be:	31 09       	sbc	r19, r1
 3c0:	26 3c       	cpi	r18, 0xC6	; 198
 3c2:	31 05       	cpc	r19, r1
 3c4:	08 f4       	brcc	.+2      	; 0x3c8 <main+0x10e>
 3c6:	94 cf       	rjmp	.-216    	; 0x2f0 <main+0x36>
 3c8:	18 16       	cp	r1, r24
 3ca:	19 06       	cpc	r1, r25
 3cc:	0c f0       	brlt	.+2      	; 0x3d0 <main+0x116>
 3ce:	90 cf       	rjmp	.-224    	; 0x2f0 <main+0x36>
 3d0:	60 91 48 01 	lds	r22, 0x0148	; 0x800148 <__data_end>
 3d4:	5c df       	rcall	.-328    	; 0x28e <apple_kbd_write>
 3d6:	8c cf       	rjmp	.-232    	; 0x2f0 <main+0x36>
 3d8:	80 3e       	cpi	r24, 0xE0	; 224
 3da:	91 05       	cpc	r25, r1
 3dc:	09 f0       	breq	.+2      	; 0x3e0 <main+0x126>
 3de:	b9 cf       	rjmp	.-142    	; 0x352 <main+0x98>
 3e0:	9c cf       	rjmp	.-200    	; 0x31a <main+0x60>
 3e2:	87 e3       	ldi	r24, 0x37	; 55
 3e4:	90 e0       	ldi	r25, 0x00	; 0
 3e6:	f4 cf       	rjmp	.-24     	; 0x3d0 <main+0x116>

000003e8 <__vector_3>:
 3e8:	1f 92       	push	r1
 3ea:	0f 92       	push	r0
 3ec:	0f b6       	in	r0, 0x3f	; 63
 3ee:	0f 92       	push	r0
 3f0:	11 24       	eor	r1, r1
 3f2:	2f 93       	push	r18
 3f4:	3f 93       	push	r19
 3f6:	4f 93       	push	r20
 3f8:	5f 93       	push	r21
 3fa:	8f 93       	push	r24
 3fc:	9f 93       	push	r25
 3fe:	ef 93       	push	r30
 400:	ff 93       	push	r31
 402:	b0 99       	sbic	0x16, 0	; 22
 404:	8a c0       	rjmp	.+276    	; 0x51a <__LOCK_REGION_LENGTH__+0x11a>
 406:	26 b3       	in	r18, 0x16	; 22
 408:	21 fb       	bst	r18, 1
 40a:	88 27       	eor	r24, r24
 40c:	80 f9       	bld	r24, 0
 40e:	90 e0       	ldi	r25, 0x00	; 0
 410:	20 91 4f 01 	lds	r18, 0x014F	; 0x80014f <ps2_rx_state>
 414:	21 30       	cpi	r18, 0x01	; 1
 416:	b9 f0       	breq	.+46     	; 0x446 <__LOCK_REGION_LENGTH__+0x46>
 418:	30 f0       	brcs	.+12     	; 0x426 <__LOCK_REGION_LENGTH__+0x26>
 41a:	22 30       	cpi	r18, 0x02	; 2
 41c:	e9 f1       	breq	.+122    	; 0x498 <__LOCK_REGION_LENGTH__+0x98>
 41e:	23 30       	cpi	r18, 0x03	; 3
 420:	09 f4       	brne	.+2      	; 0x424 <__LOCK_REGION_LENGTH__+0x24>
 422:	46 c0       	rjmp	.+140    	; 0x4b0 <__LOCK_REGION_LENGTH__+0xb0>
 424:	7a c0       	rjmp	.+244    	; 0x51a <__LOCK_REGION_LENGTH__+0x11a>
 426:	81 11       	cpse	r24, r1
 428:	0c c0       	rjmp	.+24     	; 0x442 <__LOCK_REGION_LENGTH__+0x42>
 42a:	10 92 4e 01 	sts	0x014E, r1	; 0x80014e <ps2_rx_data_byte>
 42e:	10 92 4d 01 	sts	0x014D, r1	; 0x80014d <ps2_rx_bit_count+0x1>
 432:	10 92 4c 01 	sts	0x014C, r1	; 0x80014c <ps2_rx_bit_count>
 436:	10 92 4b 01 	sts	0x014B, r1	; 0x80014b <ps2_rx_parity+0x1>
 43a:	10 92 4a 01 	sts	0x014A, r1	; 0x80014a <ps2_rx_parity>
 43e:	81 e0       	ldi	r24, 0x01	; 1
 440:	6a c0       	rjmp	.+212    	; 0x516 <__LOCK_REGION_LENGTH__+0x116>
 442:	84 e0       	ldi	r24, 0x04	; 4
 444:	68 c0       	rjmp	.+208    	; 0x516 <__LOCK_REGION_LENGTH__+0x116>
 446:	20 91 4a 01 	lds	r18, 0x014A	; 0x80014a <ps2_rx_parity>
 44a:	30 91 4b 01 	lds	r19, 0x014B	; 0x80014b <ps2_rx_parity+0x1>
 44e:	28 0f       	add	r18, r24
 450:	39 1f       	adc	r19, r25
 452:	30 93 4b 01 	sts	0x014B, r19	; 0x80014b <ps2_rx_parity+0x1>
 456:	20 93 4a 01 	sts	0x014A, r18	; 0x80014a <ps2_rx_parity>
 45a:	40 91 4c 01 	lds	r20, 0x014C	; 0x80014c <ps2_rx_bit_count>
 45e:	50 91 4d 01 	lds	r21, 0x014D	; 0x80014d <ps2_rx_bit_count+0x1>
 462:	20 91 4e 01 	lds	r18, 0x014E	; 0x80014e <ps2_rx_data_byte>
 466:	01 c0       	rjmp	.+2      	; 0x46a <__LOCK_REGION_LENGTH__+0x6a>
 468:	88 0f       	add	r24, r24
 46a:	4a 95       	dec	r20
 46c:	ea f7       	brpl	.-6      	; 0x468 <__LOCK_REGION_LENGTH__+0x68>
 46e:	82 0f       	add	r24, r18
 470:	80 93 4e 01 	sts	0x014E, r24	; 0x80014e <ps2_rx_data_byte>
 474:	80 91 4c 01 	lds	r24, 0x014C	; 0x80014c <ps2_rx_bit_count>
 478:	90 91 4d 01 	lds	r25, 0x014D	; 0x80014d <ps2_rx_bit_count+0x1>
 47c:	01 96       	adiw	r24, 0x01	; 1
 47e:	90 93 4d 01 	sts	0x014D, r25	; 0x80014d <ps2_rx_bit_count+0x1>
 482:	80 93 4c 01 	sts	0x014C, r24	; 0x80014c <ps2_rx_bit_count>
 486:	80 91 4c 01 	lds	r24, 0x014C	; 0x80014c <ps2_rx_bit_count>
 48a:	90 91 4d 01 	lds	r25, 0x014D	; 0x80014d <ps2_rx_bit_count+0x1>
 48e:	08 97       	sbiw	r24, 0x08	; 8
 490:	09 f0       	breq	.+2      	; 0x494 <__LOCK_REGION_LENGTH__+0x94>
 492:	43 c0       	rjmp	.+134    	; 0x51a <__LOCK_REGION_LENGTH__+0x11a>
 494:	82 e0       	ldi	r24, 0x02	; 2
 496:	3f c0       	rjmp	.+126    	; 0x516 <__LOCK_REGION_LENGTH__+0x116>
 498:	20 91 4a 01 	lds	r18, 0x014A	; 0x80014a <ps2_rx_parity>
 49c:	30 91 4b 01 	lds	r19, 0x014B	; 0x80014b <ps2_rx_parity+0x1>
 4a0:	82 0f       	add	r24, r18
 4a2:	93 1f       	adc	r25, r19
 4a4:	80 ff       	sbrs	r24, 0
 4a6:	02 c0       	rjmp	.+4      	; 0x4ac <__LOCK_REGION_LENGTH__+0xac>
 4a8:	83 e0       	ldi	r24, 0x03	; 3
 4aa:	35 c0       	rjmp	.+106    	; 0x516 <__LOCK_REGION_LENGTH__+0x116>
 4ac:	86 e0       	ldi	r24, 0x06	; 6
 4ae:	33 c0       	rjmp	.+102    	; 0x516 <__LOCK_REGION_LENGTH__+0x116>
 4b0:	81 30       	cpi	r24, 0x01	; 1
 4b2:	81 f5       	brne	.+96     	; 0x514 <__LOCK_REGION_LENGTH__+0x114>
 4b4:	80 91 50 01 	lds	r24, 0x0150	; 0x800150 <ps2_scan_code_count>
 4b8:	90 91 51 01 	lds	r25, 0x0151	; 0x800151 <ps2_scan_code_count+0x1>
 4bc:	80 97       	sbiw	r24, 0x20	; 32
 4be:	44 f5       	brge	.+80     	; 0x510 <__LOCK_REGION_LENGTH__+0x110>
 4c0:	e0 91 52 01 	lds	r30, 0x0152	; 0x800152 <ps2_buffer_in>
 4c4:	f0 91 53 01 	lds	r31, 0x0153	; 0x800153 <ps2_buffer_in+0x1>
 4c8:	80 91 4e 01 	lds	r24, 0x014E	; 0x80014e <ps2_rx_data_byte>
 4cc:	ea 5a       	subi	r30, 0xAA	; 170
 4ce:	fe 4f       	sbci	r31, 0xFE	; 254
 4d0:	80 83       	st	Z, r24
 4d2:	80 91 50 01 	lds	r24, 0x0150	; 0x800150 <ps2_scan_code_count>
 4d6:	90 91 51 01 	lds	r25, 0x0151	; 0x800151 <ps2_scan_code_count+0x1>
 4da:	01 96       	adiw	r24, 0x01	; 1
 4dc:	90 93 51 01 	sts	0x0151, r25	; 0x800151 <ps2_scan_code_count+0x1>
 4e0:	80 93 50 01 	sts	0x0150, r24	; 0x800150 <ps2_scan_code_count>
 4e4:	80 91 52 01 	lds	r24, 0x0152	; 0x800152 <ps2_buffer_in>
 4e8:	90 91 53 01 	lds	r25, 0x0153	; 0x800153 <ps2_buffer_in+0x1>
 4ec:	01 96       	adiw	r24, 0x01	; 1
 4ee:	90 93 53 01 	sts	0x0153, r25	; 0x800153 <ps2_buffer_in+0x1>
 4f2:	80 93 52 01 	sts	0x0152, r24	; 0x800152 <ps2_buffer_in>
 4f6:	80 91 52 01 	lds	r24, 0x0152	; 0x800152 <ps2_buffer_in>
 4fa:	90 91 53 01 	lds	r25, 0x0153	; 0x800153 <ps2_buffer_in+0x1>
 4fe:	80 97       	sbiw	r24, 0x20	; 32
 500:	21 f4       	brne	.+8      	; 0x50a <__LOCK_REGION_LENGTH__+0x10a>
 502:	10 92 53 01 	sts	0x0153, r1	; 0x800153 <ps2_buffer_in+0x1>
 506:	10 92 52 01 	sts	0x0152, r1	; 0x800152 <ps2_buffer_in>
 50a:	10 92 4f 01 	sts	0x014F, r1	; 0x80014f <ps2_rx_state>
 50e:	05 c0       	rjmp	.+10     	; 0x51a <__LOCK_REGION_LENGTH__+0x11a>
 510:	85 e0       	ldi	r24, 0x05	; 5
 512:	01 c0       	rjmp	.+2      	; 0x516 <__LOCK_REGION_LENGTH__+0x116>
 514:	87 e0       	ldi	r24, 0x07	; 7
 516:	80 93 4f 01 	sts	0x014F, r24	; 0x80014f <ps2_rx_state>
 51a:	ff 91       	pop	r31
 51c:	ef 91       	pop	r30
 51e:	9f 91       	pop	r25
 520:	8f 91       	pop	r24
 522:	5f 91       	pop	r21
 524:	4f 91       	pop	r20
 526:	3f 91       	pop	r19
 528:	2f 91       	pop	r18
 52a:	0f 90       	pop	r0
 52c:	0f be       	out	0x3f, r0	; 63
 52e:	0f 90       	pop	r0
 530:	1f 90       	pop	r1
 532:	18 95       	reti

00000534 <__mulhi3>:
 534:	00 24       	eor	r0, r0
 536:	55 27       	eor	r21, r21
 538:	04 c0       	rjmp	.+8      	; 0x542 <__mulhi3+0xe>
 53a:	08 0e       	add	r0, r24
 53c:	59 1f       	adc	r21, r25
 53e:	88 0f       	add	r24, r24
 540:	99 1f       	adc	r25, r25
 542:	00 97       	sbiw	r24, 0x00	; 0
 544:	29 f0       	breq	.+10     	; 0x550 <__mulhi3+0x1c>
 546:	76 95       	lsr	r23
 548:	67 95       	ror	r22
 54a:	b8 f3       	brcs	.-18     	; 0x53a <__mulhi3+0x6>
 54c:	71 05       	cpc	r23, r1
 54e:	b9 f7       	brne	.-18     	; 0x53e <__mulhi3+0xa>
 550:	80 2d       	mov	r24, r0
 552:	95 2f       	mov	r25, r21
 554:	08 95       	ret

00000556 <_exit>:
 556:	f8 94       	cli

00000558 <__stop_program>:
 558:	ff cf       	rjmp	.-2      	; 0x558 <__stop_program>
